target datalayout = "e-m:e-p270:32:32-p271:32:32-p272:64:64-i64:64-i128:128-f80:128-n8:16:32:64-S128"
target triple = "x86_64-pc-linux-gnu"

%"class.std::shared_ptr" = type { %"class.std::__shared_ptr" }
%"class.std::__shared_ptr" = type { ptr, %"class.std::__shared_count" }
%"class.std::__shared_count" = type { ptr }
%"class.arrow::ipc::Message" = type { %"class.std::unique_ptr" }
%"class.std::unique_ptr" = type { %"struct.std::__uniq_ptr_data" }
%"struct.std::__uniq_ptr_data" = type { %"class.std::__uniq_ptr_impl" }
%"class.std::__uniq_ptr_impl" = type { %"class.std::tuple" }
%"class.std::tuple" = type { %"struct.std::_Tuple_impl" }
%"struct.std::_Tuple_impl" = type { %"struct.std::_Head_base.1" }
%"struct.std::_Head_base.1" = type { ptr }
%"class.arrow::ipc::Message::MessageImpl" = type { %"class.std::shared_ptr", ptr, %"class.std::shared_ptr.2", %"class.std::shared_ptr" }
%"class.std::shared_ptr.2" = type { %"class.std::__shared_ptr.3" }
%"class.std::__shared_ptr.3" = type { ptr, %"class.std::__shared_count" }
%"class.arrow_vendored_private::flatbuffers::Table" = type { [1 x i8] }

; Function Attrs: mustprogress nounwind uwtable
define linkonce_odr noundef i32 @_ZN22arrow_vendored_private11flatbuffers12EndianScalarIiEET_S2_(i32 noundef %0) #1 comdat {
  %2 = alloca i32, align 4
  store i32 %0, ptr %2, align 4, !tbaa !100
  %3 = load i32, ptr %2, align 4, !tbaa !100
  ret i32 %3
}

; Function Attrs: mustprogress nounwind uwtable
define linkonce_odr noundef nonnull align 8 dereferenceable(8) ptr @_ZNSt10_Head_baseILm0EPN5arrow3ipc7Message11MessageImplELb0EE7_M_headERKS5_(ptr noundef nonnull align 8 dereferenceable(8) %0) #1 comdat align 2 {
  %2 = alloca ptr, align 8
  store ptr %0, ptr %2, align 8, !tbaa !267
  %3 = load ptr, ptr %2, align 8, !tbaa !267
  %4 = getelementptr inbounds nuw %"struct.std::_Head_base.1", ptr %3, i32 0, i32 0
  ret ptr %4
}

; Function Attrs: mustprogress nounwind uwtable
define linkonce_odr noundef zeroext i16 @_ZN22arrow_vendored_private11flatbuffers12EndianScalarItEET_S2_(i16 noundef zeroext %0) #1 comdat {
  %2 = alloca i16, align 2
  store i16 %0, ptr %2, align 2, !tbaa !31
  %3 = load i16, ptr %2, align 2, !tbaa !31
  ret i16 %3
}

; Function Attrs: mustprogress uwtable
define linkonce_odr noundef i32 @_ZN22arrow_vendored_private11flatbuffers10ReadScalarIiEET_PKv(ptr noundef %0) #0 comdat {
  %2 = alloca ptr, align 8
  store ptr %0, ptr %2, align 8, !tbaa !166
  %3 = load ptr, ptr %2, align 8, !tbaa !166
  %4 = load i32, ptr %3, align 4, !tbaa !100
  %5 = call noundef i32 @_ZN22arrow_vendored_private11flatbuffers12EndianScalarIiEET_S2_(i32 noundef %4)
  ret i32 %5
}

; Function Attrs: mustprogress nounwind uwtable
define linkonce_odr noundef nonnull align 8 dereferenceable(8) ptr @_ZNSt11_Tuple_implILm0EJPN5arrow3ipc7Message11MessageImplESt14default_deleteIS3_EEE7_M_headERKS7_(ptr noundef nonnull align 8 dereferenceable(8) %0) #1 comdat align 2 {
  %2 = alloca ptr, align 8
  store ptr %0, ptr %2, align 8, !tbaa !263
  %3 = load ptr, ptr %2, align 8, !tbaa !263
  %4 = call noundef nonnull align 8 dereferenceable(8) ptr @_ZNSt10_Head_baseILm0EPN5arrow3ipc7Message11MessageImplELb0EE7_M_headERKS5_(ptr noundef nonnull align 8 dereferenceable(8) %3) #21
  ret ptr %4
}

; Function Attrs: mustprogress nounwind uwtable
define linkonce_odr noundef zeroext i8 @_ZN22arrow_vendored_private11flatbuffers12EndianScalarIhEET_S2_(i8 noundef zeroext %0) #1 comdat {
  %2 = alloca i8, align 1
  store i8 %0, ptr %2, align 1, !tbaa !130
  %3 = load i8, ptr %2, align 1, !tbaa !130
  ret i8 %3
}

; Function Attrs: mustprogress uwtable
define linkonce_odr noundef zeroext i16 @_ZN22arrow_vendored_private11flatbuffers10ReadScalarItEET_PKv(ptr noundef %0) #0 comdat {
  %2 = alloca ptr, align 8
  store ptr %0, ptr %2, align 8, !tbaa !166
  %3 = load ptr, ptr %2, align 8, !tbaa !166
  %4 = load i16, ptr %3, align 2, !tbaa !31
  %5 = call noundef zeroext i16 @_ZN22arrow_vendored_private11flatbuffers12EndianScalarItEET_S2_(i16 noundef zeroext %4)
  ret i16 %5
}

; Function Attrs: mustprogress uwtable
define linkonce_odr noundef ptr @_ZNK22arrow_vendored_private11flatbuffers5Table9GetVTableEv(ptr noundef nonnull align 1 dereferenceable(1) %0) #0 comdat align 2 {
  %2 = alloca ptr, align 8
  store ptr %0, ptr %2, align 8, !tbaa !295
  %3 = load ptr, ptr %2, align 8
  %4 = getelementptr inbounds nuw %"class.arrow_vendored_private::flatbuffers::Table", ptr %3, i32 0, i32 0
  %5 = getelementptr inbounds [1 x i8], ptr %4, i64 0, i64 0
  %6 = getelementptr inbounds nuw %"class.arrow_vendored_private::flatbuffers::Table", ptr %3, i32 0, i32 0
  %7 = getelementptr inbounds [1 x i8], ptr %6, i64 0, i64 0
  %8 = call noundef i32 @_ZN22arrow_vendored_private11flatbuffers10ReadScalarIiEET_PKv(ptr noundef %7)
  %9 = sext i32 %8 to i64
  %10 = sub i64 0, %9
  %11 = getelementptr inbounds i8, ptr %5, i64 %10
  ret ptr %11
}

; Function Attrs: mustprogress nounwind uwtable
define linkonce_odr noundef nonnull align 8 dereferenceable(8) ptr @_ZSt12__get_helperILm0EPN5arrow3ipc7Message11MessageImplEJSt14default_deleteIS3_EEERKT0_RKSt11_Tuple_implIXT_EJS7_DpT1_EE(ptr noundef nonnull align 8 dereferenceable(8) %0) #1 comdat {
  %2 = alloca ptr, align 8
  store ptr %0, ptr %2, align 8, !tbaa !263
  %3 = load ptr, ptr %2, align 8, !tbaa !263
  %4 = call noundef nonnull align 8 dereferenceable(8) ptr @_ZNSt11_Tuple_implILm0EJPN5arrow3ipc7Message11MessageImplESt14default_deleteIS3_EEE7_M_headERKS7_(ptr noundef nonnull align 8 dereferenceable(8) %3) #21
  ret ptr %4
}

; Function Attrs: mustprogress uwtable
define linkonce_odr noundef zeroext i8 @_ZN22arrow_vendored_private11flatbuffers10ReadScalarIhEET_PKv(ptr noundef %0) #0 comdat {
  %2 = alloca ptr, align 8
  store ptr %0, ptr %2, align 8, !tbaa !166
  %3 = load ptr, ptr %2, align 8, !tbaa !166
  %4 = load i8, ptr %3, align 1, !tbaa !130
  %5 = call noundef zeroext i8 @_ZN22arrow_vendored_private11flatbuffers12EndianScalarIhEET_S2_(i8 noundef zeroext %4)
  ret i8 %5
}

; Function Attrs: mustprogress uwtable
define linkonce_odr noundef zeroext i16 @_ZNK22arrow_vendored_private11flatbuffers5Table22GetOptionalFieldOffsetEt(ptr noundef nonnull align 1 dereferenceable(1) %0, i16 noundef zeroext %1) #0 comdat align 2 {
  %3 = alloca ptr, align 8
  %4 = alloca i16, align 2
  %5 = alloca ptr, align 8
  %6 = alloca i16, align 2
  store ptr %0, ptr %3, align 8, !tbaa !295
  store i16 %1, ptr %4, align 2, !tbaa !31
  %7 = load ptr, ptr %3, align 8
  call void @llvm.lifetime.start.p0(i64 8, ptr %5) #21
  %8 = call noundef ptr @_ZNK22arrow_vendored_private11flatbuffers5Table9GetVTableEv(ptr noundef nonnull align 1 dereferenceable(1) %7)
  store ptr %8, ptr %5, align 8, !tbaa !73
  call void @llvm.lifetime.start.p0(i64 2, ptr %6) #21
  %9 = load ptr, ptr %5, align 8, !tbaa !73
  %10 = call noundef zeroext i16 @_ZN22arrow_vendored_private11flatbuffers10ReadScalarItEET_PKv(ptr noundef %9)
  store i16 %10, ptr %6, align 2, !tbaa !31
  %11 = load i16, ptr %4, align 2, !tbaa !31
  %12 = zext i16 %11 to i32
  %13 = load i16, ptr %6, align 2, !tbaa !31
  %14 = zext i16 %13 to i32
  %15 = icmp slt i32 %12, %14
  br i1 %15, label %16, label %24

16:                                               ; preds = %2
  %17 = load ptr, ptr %5, align 8, !tbaa !73
  %18 = load i16, ptr %4, align 2, !tbaa !31
  %19 = zext i16 %18 to i32
  %20 = sext i32 %19 to i64
  %21 = getelementptr inbounds i8, ptr %17, i64 %20
  %22 = call noundef zeroext i16 @_ZN22arrow_vendored_private11flatbuffers10ReadScalarItEET_PKv(ptr noundef %21)
  %23 = zext i16 %22 to i32
  br label %25

24:                                               ; preds = %2
  br label %25

25:                                               ; preds = %24, %16
  %26 = phi i32 [ %23, %16 ], [ 0, %24 ]
  %27 = trunc i32 %26 to i16
  call void @llvm.lifetime.end.p0(i64 2, ptr %6) #21
  call void @llvm.lifetime.end.p0(i64 8, ptr %5) #21
  ret i16 %27
}

; Function Attrs: mustprogress nounwind uwtable
define linkonce_odr noundef nonnull align 8 dereferenceable(8) ptr @_ZSt3getILm0EJPN5arrow3ipc7Message11MessageImplESt14default_deleteIS3_EEERKNSt13tuple_elementIXT_ESt5tupleIJDpT0_EEE4typeERKSB_(ptr noundef nonnull align 8 dereferenceable(8) %0) #1 comdat {
  %2 = alloca ptr, align 8
  store ptr %0, ptr %2, align 8, !tbaa !261
  %3 = load ptr, ptr %2, align 8, !tbaa !261
  %4 = call noundef nonnull align 8 dereferenceable(8) ptr @_ZSt12__get_helperILm0EPN5arrow3ipc7Message11MessageImplEJSt14default_deleteIS3_EEERKT0_RKSt11_Tuple_implIXT_EJS7_DpT1_EE(ptr noundef nonnull align 8 dereferenceable(8) %3) #21
  ret ptr %4
}

; Function Attrs: mustprogress uwtable
define linkonce_odr noundef zeroext i8 @_ZNK22arrow_vendored_private11flatbuffers5Table8GetFieldIhEET_tS3_(ptr noundef nonnull align 1 dereferenceable(1) %0, i16 noundef zeroext %1, i8 noundef zeroext %2) #0 comdat align 2 {
  %4 = alloca ptr, align 8
  %5 = alloca i16, align 2
  %6 = alloca i8, align 1
  %7 = alloca i16, align 2
  store ptr %0, ptr %4, align 8, !tbaa !295
  store i16 %1, ptr %5, align 2, !tbaa !31
  store i8 %2, ptr %6, align 1, !tbaa !130
  %8 = load ptr, ptr %4, align 8
  call void @llvm.lifetime.start.p0(i64 2, ptr %7) #21
  %9 = load i16, ptr %5, align 2, !tbaa !31
  %10 = call noundef zeroext i16 @_ZNK22arrow_vendored_private11flatbuffers5Table22GetOptionalFieldOffsetEt(ptr noundef nonnull align 1 dereferenceable(1) %8, i16 noundef zeroext %9)
  store i16 %10, ptr %7, align 2, !tbaa !31
  %11 = load i16, ptr %7, align 2, !tbaa !31
  %12 = icmp ne i16 %11, 0
  br i1 %12, label %13, label %21

13:                                               ; preds = %3
  %14 = getelementptr inbounds nuw %"class.arrow_vendored_private::flatbuffers::Table", ptr %8, i32 0, i32 0
  %15 = getelementptr inbounds [1 x i8], ptr %14, i64 0, i64 0
  %16 = load i16, ptr %7, align 2, !tbaa !31
  %17 = zext i16 %16 to i32
  %18 = sext i32 %17 to i64
  %19 = getelementptr inbounds i8, ptr %15, i64 %18
  %20 = call noundef zeroext i8 @_ZN22arrow_vendored_private11flatbuffers10ReadScalarIhEET_PKv(ptr noundef %19)
  br label %23

21:                                               ; preds = %3
  %22 = load i8, ptr %6, align 1, !tbaa !130
  br label %23

23:                                               ; preds = %21, %13
  %24 = phi i8 [ %20, %13 ], [ %22, %21 ]
  call void @llvm.lifetime.end.p0(i64 2, ptr %7) #21
  ret i8 %24
}

; Function Attrs: mustprogress nounwind uwtable
define linkonce_odr noundef ptr @_ZNKSt15__uniq_ptr_implIN5arrow3ipc7Message11MessageImplESt14default_deleteIS3_EE6_M_ptrEv(ptr noundef nonnull align 8 dereferenceable(8) %0) #1 comdat align 2 {
  %2 = alloca ptr, align 8
  store ptr %0, ptr %2, align 8, !tbaa !259
  %3 = load ptr, ptr %2, align 8
  %4 = getelementptr inbounds nuw %"class.std::__uniq_ptr_impl", ptr %3, i32 0, i32 0
  %5 = call noundef nonnull align 8 dereferenceable(8) ptr @_ZSt3getILm0EJPN5arrow3ipc7Message11MessageImplESt14default_deleteIS3_EEERKNSt13tuple_elementIXT_ESt5tupleIJDpT0_EEE4typeERKSB_(ptr noundef nonnull align 8 dereferenceable(8) %4) #21
  %6 = load ptr, ptr %5, align 8, !tbaa !12
  ret ptr %6
}

; Function Attrs: mustprogress uwtable
define linkonce_odr noundef zeroext i8 @_ZNK3org6apache5arrow7flatbuf7Message11header_typeEv(ptr noundef nonnull align 1 dereferenceable(1) %0) #0 comdat align 2 {
  %2 = alloca ptr, align 8
  store ptr %0, ptr %2, align 8, !tbaa !72
  %3 = load ptr, ptr %2, align 8
  %4 = call noundef zeroext i8 @_ZNK22arrow_vendored_private11flatbuffers5Table8GetFieldIhEET_tS3_(ptr noundef nonnull align 1 dereferenceable(1) %3, i16 noundef zeroext 6, i8 noundef zeroext 0)
  ret i8 %4
}

; Function Attrs: mustprogress nounwind uwtable
define linkonce_odr noundef ptr @_ZNKSt10unique_ptrIN5arrow3ipc7Message11MessageImplESt14default_deleteIS3_EE3getEv(ptr noundef nonnull align 8 dereferenceable(8) %0) #1 comdat align 2 {
  %2 = alloca ptr, align 8
  store ptr %0, ptr %2, align 8, !tbaa !10
  %3 = load ptr, ptr %2, align 8
  %4 = getelementptr inbounds nuw %"class.std::unique_ptr", ptr %3, i32 0, i32 0
  %5 = call noundef ptr @_ZNKSt15__uniq_ptr_implIN5arrow3ipc7Message11MessageImplESt14default_deleteIS3_EE6_M_ptrEv(ptr noundef nonnull align 8 dereferenceable(8) %4) #21
  ret ptr %5
}

; Function Attrs: mustprogress uwtable
define linkonce_odr noundef i32 @_ZNK5arrow3ipc7Message11MessageImpl4typeEv(ptr noundef nonnull align 8 dereferenceable(56) %0) #0 comdat align 2 {
  %2 = alloca i32, align 4
  %3 = alloca ptr, align 8
  store ptr %0, ptr %3, align 8, !tbaa !12
  %4 = load ptr, ptr %3, align 8
  %5 = getelementptr inbounds nuw %"class.arrow::ipc::Message::MessageImpl", ptr %4, i32 0, i32 1
  %6 = load ptr, ptr %5, align 8, !tbaa !14
  %7 = call noundef zeroext i8 @_ZNK3org6apache5arrow7flatbuf7Message11header_typeEv(ptr noundef nonnull align 1 dereferenceable(1) %6)
  switch i8 %7, label %13 [
    i8 1, label %8
    i8 2, label %9
    i8 3, label %10
    i8 4, label %11
    i8 5, label %12
  ]

8:                                                ; preds = %1
  store i32 1, ptr %2, align 4
  br label %14

9:                                                ; preds = %1
  store i32 2, ptr %2, align 4
  br label %14

10:                                               ; preds = %1
  store i32 3, ptr %2, align 4
  br label %14

11:                                               ; preds = %1
  store i32 4, ptr %2, align 4
  br label %14

12:                                               ; preds = %1
  store i32 5, ptr %2, align 4
  br label %14

13:                                               ; preds = %1
  store i32 0, ptr %2, align 4
  br label %14

14:                                               ; preds = %13, %12, %11, %10, %9, %8
  %15 = load i32, ptr %2, align 4
  ret i32 %15
}

; Function Attrs: mustprogress nounwind uwtable
define linkonce_odr noundef ptr @_ZNKSt10unique_ptrIN5arrow3ipc7Message11MessageImplESt14default_deleteIS3_EEptEv(ptr noundef nonnull align 8 dereferenceable(8) %0) #1 comdat align 2 {
  %2 = alloca ptr, align 8
  store ptr %0, ptr %2, align 8, !tbaa !10
  %3 = load ptr, ptr %2, align 8
  %4 = call noundef ptr @_ZNKSt10unique_ptrIN5arrow3ipc7Message11MessageImplESt14default_deleteIS3_EE3getEv(ptr noundef nonnull align 8 dereferenceable(8) %3) #21
  ret ptr %4
}

; Function Attrs: mustprogress uwtable
define noundef i32 @_ZNK5arrow3ipc7Message4typeEv(ptr noundef nonnull align 8 dereferenceable(8) %0) #0 align 2 {
  %2 = alloca ptr, align 8
  store ptr %0, ptr %2, align 8, !tbaa !3
  %3 = load ptr, ptr %2, align 8
  %4 = getelementptr inbounds nuw %"class.arrow::ipc::Message", ptr %3, i32 0, i32 0
  %5 = call noundef ptr @_ZNKSt10unique_ptrIN5arrow3ipc7Message11MessageImplESt14default_deleteIS3_EEptEv(ptr noundef nonnull align 8 dereferenceable(8) %4) #21
  %6 = call noundef i32 @_ZNK5arrow3ipc7Message11MessageImpl4typeEv(ptr noundef nonnull align 8 dereferenceable(56) %5)
  ret i32 %6
}