; Function Attrs: mustprogress nofree norecurse nosync nounwind willreturn memory(read, inaccessiblemem: none) uwtable
define noundef range(i32 0, 6) i32 @_ZNK5arrow3ipc7Message4typeEv(ptr noundef nonnull readonly align 8 captures(none) dereferenceable(8) %0) local_unnamed_addr #6 align 2 {
  %2 = load ptr, ptr %0, align 8, !tbaa !15
  %3 = getelementptr inbounds nuw i8, ptr %2, i64 16
  %4 = load ptr, ptr %3, align 8, !tbaa !72
  %5 = load i32, ptr %4, align 4, !tbaa !23
  %6 = sext i32 %5 to i64
  %7 = sub nsw i64 0, %6
  %8 = getelementptr inbounds i8, ptr %4, i64 %7
  %9 = load i16, ptr %8, align 2, !tbaa !77
  %10 = icmp ugt i16 %9, 6
  br i1 %10, label %_ZNK22arrow_vendored_private11flatbuffers5Table22GetOptionalFieldOffsetEt.exit.i.i.i, label %_ZNK5arrow3ipc7Message11MessageImpl4typeEv.exit

_ZNK22arrow_vendored_private11flatbuffers5Table22GetOptionalFieldOffsetEt.exit.i.i.i: ; preds = %1
  %11 = getelementptr inbounds nuw i8, ptr %8, i64 6
  %12 = load i16, ptr %11, align 2, !tbaa !77
  %.not.i.i.i = icmp eq i16 %12, 0
  br i1 %.not.i.i.i, label %_ZNK5arrow3ipc7Message11MessageImpl4typeEv.exit, label %_ZNK3org6apache5arrow7flatbuf7Message11header_typeEv.exit.i

_ZNK3org6apache5arrow7flatbuf7Message11header_typeEv.exit.i: ; preds = %_ZNK22arrow_vendored_private11flatbuffers5Table22GetOptionalFieldOffsetEt.exit.i.i.i
  %13 = zext i16 %12 to i64
  %14 = getelementptr inbounds nuw i8, ptr %4, i64 %13
  %15 = load i8, ptr %14, align 1, !tbaa !22
  %switch.tableidx = add i8 %15, -1
  %16 = icmp ult i8 %switch.tableidx, 5
  %switch.offset = zext nneg i8 %15 to i32
  %spec.select = select i1 %16, i32 %switch.offset, i32 0
  br label %_ZNK5arrow3ipc7Message11MessageImpl4typeEv.exit

_ZNK5arrow3ipc7Message11MessageImpl4typeEv.exit:  ; preds = %_ZNK3org6apache5arrow7flatbuf7Message11header_typeEv.exit.i, %1, %_ZNK22arrow_vendored_private11flatbuffers5Table22GetOptionalFieldOffsetEt.exit.i.i.i
  %.0.i = phi i32 [ 0, %_ZNK22arrow_vendored_private11flatbuffers5Table22GetOptionalFieldOffsetEt.exit.i.i.i ], [ 0, %1 ], [ %spec.select, %_ZNK3org6apache5arrow7flatbuf7Message11header_typeEv.exit.i ]
  ret i32 %.0.i
}